; ModuleID = 'source-C-CXX/29/1194.cpp'
source_filename = "source-C-CXX/29/1194.cpp"
target datalayout = "e-m:e-p270:32:32-p271:32:32-p272:64:64-i64:64-f80:128-n8:16:32:64-S128"
target triple = "x86_64-pc-linux-gnu"

%"class.std::ios_base::Init" = type { i8 }
%"class.std::basic_istream" = type { i32 (...)**, i64, %"class.std::basic_ios" }
%"class.std::basic_ios" = type { %"class.std::ios_base", %"class.std::basic_ostream"*, i8, i8, %"class.std::basic_streambuf"*, %"class.std::ctype"*, %"class.std::num_put"*, %"class.std::num_get"* }
%"class.std::ios_base" = type { i32 (...)**, i64, i64, i32, i32, i32, %"struct.std::ios_base::_Callback_list"*, %"struct.std::ios_base::_Words", [8 x %"struct.std::ios_base::_Words"], i32, %"struct.std::ios_base::_Words"*, %"class.std::locale" }
%"struct.std::ios_base::_Callback_list" = type { %"struct.std::ios_base::_Callback_list"*, void (i32, %"class.std::ios_base"*, i32)*, i32, i32 }
%"struct.std::ios_base::_Words" = type { i8*, i64 }
%"class.std::locale" = type { %"class.std::locale::_Impl"* }
%"class.std::locale::_Impl" = type { i32, %"class.std::locale::facet"**, i64, %"class.std::locale::facet"**, i8** }
%"class.std::locale::facet" = type <{ i32 (...)**, i32, [4 x i8] }>
%"class.std::basic_ostream" = type { i32 (...)**, %"class.std::basic_ios" }
%"class.std::basic_streambuf" = type { i32 (...)**, i8*, i8*, i8*, i8*, i8*, i8*, %"class.std::locale" }
%"class.std::ctype" = type <{ %"class.std::locale::facet.base", [4 x i8], %struct.__locale_struct*, i8, [7 x i8], i32*, i32*, i16*, i8, [256 x i8], [256 x i8], i8, [6 x i8] }>
%"class.std::locale::facet.base" = type <{ i32 (...)**, i32 }>
%struct.__locale_struct = type { [13 x %struct.__locale_data*], i16*, i32*, i32*, [13 x i8*] }
%struct.__locale_data = type opaque
%"class.std::num_put" = type { %"class.std::locale::facet.base", [4 x i8] }
%"class.std::num_get" = type { %"class.std::locale::facet.base", [4 x i8] }

@_ZStL8__ioinit = internal global %"class.std::ios_base::Init" zeroinitializer, align 1
@__dso_handle = external hidden global i8
@_ZSt3cin = external global %"class.std::basic_istream", align 8
@_ZSt4cout = external global %"class.std::basic_ostream", align 8
@llvm.global_ctors = appending global [1 x { i32, void ()*, i8* }] [{ i32, void ()*, i8* } { i32 65535, void ()* @_GLOBAL__sub_I_1194.cpp, i8* null }]

declare void @_ZNSt8ios_base4InitC1Ev(%"class.std::ios_base::Init"* nonnull align 1 dereferenceable(1)) unnamed_addr #0

; Function Attrs: nounwind
declare void @_ZNSt8ios_base4InitD1Ev(%"class.std::ios_base::Init"* nonnull align 1 dereferenceable(1)) unnamed_addr #1

; Function Attrs: nofree nounwind
declare i32 @__cxa_atexit(void (i8*)*, i8*, i8*) local_unnamed_addr #2

; Function Attrs: mustprogress norecurse sspstrong uwtable
define dso_local i32 @main() local_unnamed_addr #3 {
  %1 = alloca i32, align 4
  %2 = bitcast i32* %1 to i8*
  call void @llvm.lifetime.start.p0i8(i64 4, i8* nonnull %2) #8
  %3 = call nonnull align 8 dereferenceable(16) %"class.std::basic_istream"* @_ZNSirsERi(%"class.std::basic_istream"* nonnull align 8 dereferenceable(16) @_ZSt3cin, i32* nonnull align 4 dereferenceable(4) %1)
  %4 = load i32, i32* %1, align 4, !tbaa !5
  %5 = icmp slt i32 %4, 1
  br i1 %5, label %68, label %6

6:                                                ; preds = %0
  %7 = icmp ult i32 %4, 8
  br i1 %7, label %48, label %8

8:                                                ; preds = %6
  %9 = and i32 %4, -8
  %10 = or i32 %9, 1
  br label %11

11:                                               ; preds = %11, %8
  %12 = phi i32 [ 0, %8 ], [ %41, %11 ]
  %13 = phi <4 x i32> [ zeroinitializer, %8 ], [ %39, %11 ]
  %14 = phi <4 x i32> [ zeroinitializer, %8 ], [ %40, %11 ]
  %15 = phi <4 x i32> [ <i32 1, i32 2, i32 3, i32 4>, %8 ], [ %42, %11 ]
  %16 = add <4 x i32> %15, <i32 4, i32 4, i32 4, i32 4>
  %17 = add nsw <4 x i32> %15, <i32 -7, i32 -7, i32 -7, i32 -7>
  %18 = add <4 x i32> %15, <i32 -3, i32 -3, i32 -3, i32 -3>
  %19 = srem <4 x i32> %17, <i32 10, i32 10, i32 10, i32 10>
  %20 = srem <4 x i32> %18, <i32 10, i32 10, i32 10, i32 10>
  %21 = icmp eq <4 x i32> %19, zeroinitializer
  %22 = icmp eq <4 x i32> %20, zeroinitializer
  %23 = urem <4 x i32> %15, <i32 7, i32 7, i32 7, i32 7>
  %24 = urem <4 x i32> %16, <i32 7, i32 7, i32 7, i32 7>
  %25 = icmp eq <4 x i32> %23, zeroinitializer
  %26 = icmp eq <4 x i32> %24, zeroinitializer
  %27 = select <4 x i1> %21, <4 x i1> <i1 true, i1 true, i1 true, i1 true>, <4 x i1> %25
  %28 = select <4 x i1> %22, <4 x i1> <i1 true, i1 true, i1 true, i1 true>, <4 x i1> %26
  %29 = add nsw <4 x i32> %15, <i32 -70, i32 -70, i32 -70, i32 -70>
  %30 = add <4 x i32> %15, <i32 -66, i32 -66, i32 -66, i32 -66>
  %31 = icmp ult <4 x i32> %29, <i32 10, i32 10, i32 10, i32 10>
  %32 = icmp ult <4 x i32> %30, <i32 10, i32 10, i32 10, i32 10>
  %33 = select <4 x i1> %27, <4 x i1> <i1 true, i1 true, i1 true, i1 true>, <4 x i1> %31
  %34 = select <4 x i1> %28, <4 x i1> <i1 true, i1 true, i1 true, i1 true>, <4 x i1> %32
  %35 = mul nsw <4 x i32> %15, %15
  %36 = mul nsw <4 x i32> %16, %16
  %37 = select <4 x i1> %33, <4 x i32> zeroinitializer, <4 x i32> %35
  %38 = select <4 x i1> %34, <4 x i32> zeroinitializer, <4 x i32> %36
  %39 = add <4 x i32> %37, %13
  %40 = add <4 x i32> %38, %14
  %41 = add nuw i32 %12, 8
  %42 = add <4 x i32> %15, <i32 8, i32 8, i32 8, i32 8>
  %43 = icmp eq i32 %41, %9
  br i1 %43, label %44, label %11, !llvm.loop !9

44:                                               ; preds = %11
  %45 = add <4 x i32> %40, %39
  %46 = call i32 @llvm.vector.reduce.add.v4i32(<4 x i32> %45)
  %47 = icmp eq i32 %4, %9
  br i1 %47, label %68, label %48

48:                                               ; preds = %6, %44
  %49 = phi i32 [ 0, %6 ], [ %46, %44 ]
  %50 = phi i32 [ 1, %6 ], [ %10, %44 ]
  br label %51

51:                                               ; preds = %48, %51
  %52 = phi i32 [ %65, %51 ], [ %49, %48 ]
  %53 = phi i32 [ %66, %51 ], [ %50, %48 ]
  %54 = add nsw i32 %53, -7
  %55 = srem i32 %54, 10
  %56 = icmp eq i32 %55, 0
  %57 = urem i32 %53, 7
  %58 = icmp eq i32 %57, 0
  %59 = select i1 %56, i1 true, i1 %58
  %60 = add nsw i32 %53, -70
  %61 = icmp ult i32 %60, 10
  %62 = select i1 %59, i1 true, i1 %61
  %63 = mul nsw i32 %53, %53
  %64 = select i1 %62, i32 0, i32 %63
  %65 = add nuw nsw i32 %64, %52
  %66 = add nuw i32 %53, 1
  %67 = icmp eq i32 %53, %4
  br i1 %67, label %68, label %51, !llvm.loop !12

68:                                               ; preds = %51, %44, %0
  %69 = phi i32 [ 0, %0 ], [ %46, %44 ], [ %65, %51 ]
  %70 = call nonnull align 8 dereferenceable(8) %"class.std::basic_ostream"* @_ZNSolsEi(%"class.std::basic_ostream"* nonnull align 8 dereferenceable(8) @_ZSt4cout, i32 %69)
  %71 = bitcast %"class.std::basic_ostream"* %70 to i8**
  %72 = load i8*, i8** %71, align 8, !tbaa !14
  %73 = getelementptr i8, i8* %72, i64 -24
  %74 = bitcast i8* %73 to i64*
  %75 = load i64, i64* %74, align 8
  %76 = bitcast %"class.std::basic_ostream"* %70 to i8*
  %77 = add nsw i64 %75, 240
  %78 = getelementptr inbounds i8, i8* %76, i64 %77
  %79 = bitcast i8* %78 to %"class.std::ctype"**
  %80 = load %"class.std::ctype"*, %"class.std::ctype"** %79, align 8, !tbaa !16
  %81 = icmp eq %"class.std::ctype"* %80, null
  br i1 %81, label %82, label %83

82:                                               ; preds = %68
  call void @_ZSt16__throw_bad_castv() #9
  unreachable

83:                                               ; preds = %68
  %84 = getelementptr inbounds %"class.std::ctype", %"class.std::ctype"* %80, i64 0, i32 8
  %85 = load i8, i8* %84, align 8, !tbaa !20
  %86 = icmp eq i8 %85, 0
  br i1 %86, label %90, label %87

87:                                               ; preds = %83
  %88 = getelementptr inbounds %"class.std::ctype", %"class.std::ctype"* %80, i64 0, i32 9, i64 10
  %89 = load i8, i8* %88, align 1, !tbaa !22
  br label %96

90:                                               ; preds = %83
  call void @_ZNKSt5ctypeIcE13_M_widen_initEv(%"class.std::ctype"* nonnull align 8 dereferenceable(570) %80)
  %91 = bitcast %"class.std::ctype"* %80 to i8 (%"class.std::ctype"*, i8)***
  %92 = load i8 (%"class.std::ctype"*, i8)**, i8 (%"class.std::ctype"*, i8)*** %91, align 8, !tbaa !14
  %93 = getelementptr inbounds i8 (%"class.std::ctype"*, i8)*, i8 (%"class.std::ctype"*, i8)** %92, i64 6
  %94 = load i8 (%"class.std::ctype"*, i8)*, i8 (%"class.std::ctype"*, i8)** %93, align 8
  %95 = call signext i8 %94(%"class.std::ctype"* nonnull align 8 dereferenceable(570) %80, i8 signext 10)
  br label %96

96:                                               ; preds = %87, %90
  %97 = phi i8 [ %89, %87 ], [ %95, %90 ]
  %98 = call nonnull align 8 dereferenceable(8) %"class.std::basic_ostream"* @_ZNSo3putEc(%"class.std::basic_ostream"* nonnull align 8 dereferenceable(8) %70, i8 signext %97)
  %99 = call nonnull align 8 dereferenceable(8) %"class.std::basic_ostream"* @_ZNSo5flushEv(%"class.std::basic_ostream"* nonnull align 8 dereferenceable(8) %98)
  call void @llvm.lifetime.end.p0i8(i64 4, i8* nonnull %2) #8
  ret i32 0
}

; Function Attrs: argmemonly mustprogress nofree nosync nounwind willreturn
declare void @llvm.lifetime.start.p0i8(i64 immarg, i8* nocapture) #4

declare nonnull align 8 dereferenceable(16) %"class.std::basic_istream"* @_ZNSirsERi(%"class.std::basic_istream"* nonnull align 8 dereferenceable(16), i32* nonnull align 4 dereferenceable(4)) local_unnamed_addr #0

declare nonnull align 8 dereferenceable(8) %"class.std::basic_ostream"* @_ZNSolsEi(%"class.std::basic_ostream"* nonnull align 8 dereferenceable(8), i32) local_unnamed_addr #0

; Function Attrs: argmemonly mustprogress nofree nosync nounwind willreturn
declare void @llvm.lifetime.end.p0i8(i64 immarg, i8* nocapture) #4

declare nonnull align 8 dereferenceable(8) %"class.std::basic_ostream"* @_ZNSo3putEc(%"class.std::basic_ostream"* nonnull align 8 dereferenceable(8), i8 signext) local_unnamed_addr #0

declare nonnull align 8 dereferenceable(8) %"class.std::basic_ostream"* @_ZNSo5flushEv(%"class.std::basic_ostream"* nonnull align 8 dereferenceable(8)) local_unnamed_addr #0

; Function Attrs: noreturn
declare void @_ZSt16__throw_bad_castv() local_unnamed_addr #5

declare void @_ZNKSt5ctypeIcE13_M_widen_initEv(%"class.std::ctype"* nonnull align 8 dereferenceable(570)) local_unnamed_addr #0

; Function Attrs: sspstrong uwtable
define internal void @_GLOBAL__sub_I_1194.cpp() #6 section ".text.startup" {
  tail call void @_ZNSt8ios_base4InitC1Ev(%"class.std::ios_base::Init"* nonnull align 1 dereferenceable(1) @_ZStL8__ioinit)
  %1 = tail call i32 @__cxa_atexit(void (i8*)* bitcast (void (%"class.std::ios_base::Init"*)* @_ZNSt8ios_base4InitD1Ev to void (i8*)*), i8* getelementptr inbounds (%"class.std::ios_base::Init", %"class.std::ios_base::Init"* @_ZStL8__ioinit, i64 0, i32 0), i8* nonnull @__dso_handle) #8
  ret void
}

; Function Attrs: nofree nosync nounwind readnone willreturn
declare i32 @llvm.vector.reduce.add.v4i32(<4 x i32>) #7


!llvm.module.flags = !{!0, !1, !2, !3}
!llvm.ident = !{!4}

!0 = !{i32 1, !"wchar_size", i32 4}
!1 = !{i32 7, !"PIC Level", i32 2}
!2 = !{i32 7, !"PIE Level", i32 2}
!3 = !{i32 7, !"uwtable", i32 1}
!4 = !{!"clang version 13.0.0"}
!5 = !{!6, !6, i64 0}
!6 = !{!"int", !7, i64 0}
!7 = !{!"omnipotent char", !8, i64 0}
!8 = !{!"Simple C++ TBAA"}
!9 = distinct !{!9, !10, !11}
!10 = !{!"llvm.loop.mustprogress"}
!11 = !{!"llvm.loop.isvectorized", i32 1}
!12 = distinct !{!12, !10, !13, !11}
!13 = !{!"llvm.loop.unroll.runtime.disable"}
!14 = !{!15, !15, i64 0}
!15 = !{!"vtable pointer", !8, i64 0}
!16 = !{!17, !18, i64 240}
!17 = !{!"_ZTSSt9basic_iosIcSt11char_traitsIcEE", !18, i64 216, !7, i64 224, !19, i64 225, !18, i64 232, !18, i64 240, !18, i64 248, !18, i64 256}
!18 = !{!"any pointer", !7, i64 0}
!19 = !{!"bool", !7, i64 0}
!20 = !{!21, !7, i64 56}
!21 = !{!"_ZTSSt5ctypeIcE", !18, i64 16, !19, i64 24, !18, i64 32, !18, i64 40, !18, i64 48, !7, i64 56, !7, i64 57, !7, i64 313, !7, i64 569}
!22 = !{!7, !7, i64 0}
